target datalayout = "e-m:e-p270:32:32-p271:32:32-p272:64:64-i64:64-i128:128-f80:128-n8:16:32:64-S128"
target triple = "x86_64-pc-linux-gnu"

%"struct.Luau::NotNull" = type { ptr }
%"struct.Luau::Location" = type { %"struct.Luau::Position", %"struct.Luau::Position" }
%"struct.Luau::Position" = type { i32, i32 }
%"class.Luau::AstNode" = type <{ ptr, i32, %"struct.Luau::Location", [4 x i8] }>
%"class.Luau::AstNode.base" = type <{ ptr, i32, %"struct.Luau::Location" }>
%"struct.Luau::AstArray.22" = type { ptr, i64 }
%"class.Luau::AstExpr.base" = type { %"class.Luau::AstNode.base" }
%"class.Luau::AstExprCall" = type <{ %"class.Luau::AstExpr.base", [4 x i8], ptr, %"struct.Luau::AstArray.22", i8, [3 x i8], %"struct.Luau::Location", [4 x i8] }>

@_ZN4Luau7AstRttiINS_11AstExprCallEE5valueE = linkonce_odr dso_local global i32 0, comdat, align 4

; Function Attrs: mustprogress nounwind uwtable
define linkonce_odr dso_local noundef i32 @_ZN4Luau11AstExprCall10ClassIndexEv() #2 comdat align 2 {
  %1 = load i32, ptr @_ZN4Luau7AstRttiINS_11AstExprCallEE5valueE, align 4, !tbaa !4
  ret i32 %1
}

; Function Attrs: mustprogress uwtable
define linkonce_odr dso_local noundef ptr @_ZN4Luau7AstNode2asINS_11AstExprCallEEEPT_v(ptr noundef nonnull align 8 dereferenceable(28) %0) #8 comdat align 2 {
  %2 = alloca ptr, align 8
  store ptr %0, ptr %2, align 8, !tbaa !99
  %3 = load ptr, ptr %2, align 8
  %4 = getelementptr inbounds nuw %"class.Luau::AstNode", ptr %3, i32 0, i32 1
  %5 = load i32, ptr %4, align 8, !tbaa !101
  %6 = call noundef i32 @_ZN4Luau11AstExprCall10ClassIndexEv()
  %7 = icmp eq i32 %5, %6
  br i1 %7, label %8, label %9

8:                                                ; preds = %1
  br label %10

9:                                                ; preds = %1
  br label %10

10:                                               ; preds = %9, %8
  %11 = phi ptr [ %3, %8 ], [ null, %9 ]
  ret ptr %11
}

; Function Attrs: mustprogress uwtable
define dso_local noundef zeroext i1 @_ZN4Luau14AnyTypeSummary9isAnyCallEPKNS_5ScopeEPNS_7AstExprEPKNS_6ModuleENS_7NotNullINS_12BuiltinTypesEEE(ptr noundef nonnull align 8 dereferenceable(288) %0, ptr noundef %1, ptr noundef %2, ptr noundef %3, ptr %4) #8 align 2 {
  %6 = alloca i1, align 1
  %7 = alloca %"struct.Luau::NotNull", align 8
  %8 = alloca ptr, align 8
  %9 = alloca ptr, align 8
  %10 = alloca ptr, align 8
  %11 = alloca ptr, align 8
  %12 = alloca ptr, align 8
  %13 = alloca ptr, align 8
  %14 = alloca %"struct.Luau::AstArray.22", align 8
  %15 = alloca %"struct.Luau::NotNull", align 8
  %16 = alloca i32, align 4
  %17 = alloca ptr, align 8
  %18 = alloca %"struct.Luau::NotNull", align 8
  %19 = getelementptr inbounds nuw %"struct.Luau::NotNull", ptr %7, i32 0, i32 0
  store ptr %4, ptr %19, align 8
  store ptr %0, ptr %8, align 8, !tbaa !42
  store ptr %1, ptr %9, align 8, !tbaa !52
  store ptr %2, ptr %10, align 8, !tbaa !160
  store ptr %3, ptr %11, align 8, !tbaa !44
  %20 = load ptr, ptr %8, align 8
  call void @llvm.lifetime.start.p0(i64 8, ptr %12) #4
  %21 = load ptr, ptr %10, align 8, !tbaa !160
  %22 = call noundef ptr @_ZN4Luau7AstNode2asINS_11AstExprCallEEEPT_v(ptr noundef nonnull align 8 dereferenceable(28) %21)
  store ptr %22, ptr %12, align 8, !tbaa !304
  %23 = load ptr, ptr %12, align 8, !tbaa !304
  %24 = icmp ne ptr %23, null
  br i1 %24, label %25, label %55

25:                                               ; preds = %5
  call void @llvm.lifetime.start.p0(i64 8, ptr %13) #4
  %26 = load ptr, ptr %12, align 8, !tbaa !304
  %27 = getelementptr inbounds nuw %"class.Luau::AstExprCall", ptr %26, i32 0, i32 3
  call void @llvm.memcpy.p0.p0.i64(ptr align 8 %14, ptr align 8 %27, i64 16, i1 false), !tbaa.struct !226
  %28 = load ptr, ptr %11, align 8, !tbaa !44
  call void @llvm.memcpy.p0.p0.i64(ptr align 8 %15, ptr align 8 %7, i64 8, i1 false), !tbaa.struct !49
  %29 = getelementptr inbounds nuw { ptr, i64 }, ptr %14, i32 0, i32 0
  %30 = load ptr, ptr %29, align 8
  %31 = getelementptr inbounds nuw { ptr, i64 }, ptr %14, i32 0, i32 1
  %32 = load i64, ptr %31, align 8
  %33 = getelementptr inbounds nuw %"struct.Luau::NotNull", ptr %15, i32 0, i32 0
  %34 = load ptr, ptr %33, align 8
  %35 = call noundef ptr @_ZN4Luau14AnyTypeSummary19reconstructTypePackENS_8AstArrayIPNS_7AstExprEEEPKNS_6ModuleENS_7NotNullINS_12BuiltinTypesEEE(ptr noundef nonnull align 8 dereferenceable(288) %20, ptr %30, i64 %32, ptr noundef %28, ptr %34)
  store ptr %35, ptr %13, align 8, !tbaa !228
  %36 = load ptr, ptr %13, align 8, !tbaa !228
  %37 = call noundef zeroext i1 @_ZN4Luau14AnyTypeSummary11containsAnyEPKNS_11TypePackVarE(ptr noundef nonnull align 8 dereferenceable(288) %20, ptr noundef %36)
  br i1 %37, label %38, label %39

38:                                               ; preds = %25
  store i1 true, ptr %6, align 1
  store i32 1, ptr %16, align 4
  br label %52

39:                                               ; preds = %25
  call void @llvm.lifetime.start.p0(i64 8, ptr %17) #4
  %40 = load ptr, ptr %12, align 8, !tbaa !304
  %41 = getelementptr inbounds nuw %"class.Luau::AstExprCall", ptr %40, i32 0, i32 2
  %42 = load ptr, ptr %41, align 8, !tbaa !306
  %43 = load ptr, ptr %11, align 8, !tbaa !44
  call void @llvm.memcpy.p0.p0.i64(ptr align 8 %18, ptr align 8 %7, i64 8, i1 false), !tbaa.struct !49
  %44 = getelementptr inbounds nuw %"struct.Luau::NotNull", ptr %18, i32 0, i32 0
  %45 = load ptr, ptr %44, align 8
  %46 = call noundef ptr @_ZN4Luau14AnyTypeSummary10lookupTypeEPKNS_7AstExprEPKNS_6ModuleENS_7NotNullINS_12BuiltinTypesEEE(ptr noundef nonnull align 8 dereferenceable(288) %20, ptr noundef %42, ptr noundef %43, ptr %45)
  store ptr %46, ptr %17, align 8, !tbaa !246
  %47 = load ptr, ptr %17, align 8, !tbaa !246
  %48 = call noundef zeroext i1 @_ZN4Luau14AnyTypeSummary11containsAnyEPKNS_4TypeE(ptr noundef nonnull align 8 dereferenceable(288) %20, ptr noundef %47)
  br i1 %48, label %49, label %50

49:                                               ; preds = %39
  store i1 true, ptr %6, align 1
  store i32 1, ptr %16, align 4
  br label %51

50:                                               ; preds = %39
  store i32 0, ptr %16, align 4
  br label %51

51:                                               ; preds = %50, %49
  call void @llvm.lifetime.end.p0(i64 8, ptr %17) #4
  br label %52

52:                                               ; preds = %51, %38
  call void @llvm.lifetime.end.p0(i64 8, ptr %13) #4
  %53 = load i32, ptr %16, align 4
  switch i32 %53, label %56 [
    i32 0, label %54
  ]

54:                                               ; preds = %52
  br label %55

55:                                               ; preds = %54, %5
  store i32 0, ptr %16, align 4
  br label %56

56:                                               ; preds = %55, %52
  call void @llvm.lifetime.end.p0(i64 8, ptr %12) #4
  %57 = load i32, ptr %16, align 4
  switch i32 %57, label %61 [
    i32 0, label %58
    i32 1, label %59
  ]

58:                                               ; preds = %56
  store i1 false, ptr %6, align 1
  br label %59

59:                                               ; preds = %58, %56
  %60 = load i1, ptr %6, align 1
  ret i1 %60

61:                                               ; preds = %56
  unreachable
}