; Function Attrs: mustprogress uwtable
define dso_local noundef zeroext i1 @_ZN4Luau14AnyTypeSummary9isAnyCallEPKNS_5ScopeEPNS_7AstExprEPKNS_6ModuleENS_7NotNullINS_12BuiltinTypesEEE(ptr noundef nonnull align 8 dereferenceable(288) %0, ptr noundef readnone captures(none) %1, ptr noundef readonly %2, ptr noundef readonly captures(none) %3, ptr %4) local_unnamed_addr #6 align 2 {
  %6 = getelementptr inbounds nuw i8, ptr %2, i64 8
  %7 = load i32, ptr %6, align 8, !tbaa !24
  %8 = load i32, ptr @_ZN4Luau7AstRttiINS_11AstExprCallEE5valueE, align 4, !tbaa !4
  %9 = icmp ne i32 %7, %8
  %.not17 = icmp eq ptr %2, null
  %.not = or i1 %.not17, %9
  br i1 %.not, label %19, label %10

10:                                               ; preds = %5
  %11 = getelementptr inbounds nuw i8, ptr %2, i64 40
  %.sroa.03.0.copyload = load ptr, ptr %11, align 8, !tbaa !113
  %.sroa.2.0..sroa_idx = getelementptr inbounds nuw i8, ptr %2, i64 48
  %.sroa.2.0.copyload = load i64, ptr %.sroa.2.0..sroa_idx, align 8, !tbaa !114
  %12 = tail call noundef ptr @_ZN4Luau14AnyTypeSummary19reconstructTypePackENS_8AstArrayIPNS_7AstExprEEEPKNS_6ModuleENS_7NotNullINS_12BuiltinTypesEEE(ptr noundef nonnull align 8 dereferenceable(288) %0, ptr %.sroa.03.0.copyload, i64 %.sroa.2.0.copyload, ptr noundef %3, ptr %4)
  %13 = tail call noundef zeroext i1 @_ZN4Luau14AnyTypeSummary11containsAnyEPKNS_11TypePackVarE(ptr noundef nonnull align 8 dereferenceable(288) %0, ptr noundef %12)
  br i1 %13, label %.critedge, label %14

14:                                               ; preds = %10
  %15 = getelementptr inbounds nuw i8, ptr %2, i64 32
  %16 = load ptr, ptr %15, align 8, !tbaa !115
  %17 = tail call noundef ptr @_ZN4Luau14AnyTypeSummary10lookupTypeEPKNS_7AstExprEPKNS_6ModuleENS_7NotNullINS_12BuiltinTypesEEE(ptr noundef nonnull align 8 dereferenceable(288) %0, ptr noundef %16, ptr noundef %3, ptr %4)
  %18 = tail call noundef zeroext i1 @_ZN4Luau14AnyTypeSummary11containsAnyEPKNS_4TypeE(ptr noundef nonnull align 8 dereferenceable(288) %0, ptr noundef %17)
  br i1 %18, label %.critedge, label %19

19:                                               ; preds = %14, %5
  br label %.critedge

.critedge:                                        ; preds = %10, %14, %19
  %.216 = phi i1 [ false, %19 ], [ true, %14 ], [ true, %10 ]
  ret i1 %.216
}